target datalayout = "e-m:e-p270:32:32-p271:32:32-p272:64:64-i64:64-i128:128-f80:128-n8:16:32:64-S128"
target triple = "x86_64-pc-linux-gnu"

; Function Attrs: mustprogress nounwind uwtable
define internal noundef i32 @_ZL15__get_cpuid_maxjPj(i32 noundef %0, ptr noundef %1) #0 {
  %3 = alloca i32, align 4
  %4 = alloca ptr, align 8
  %5 = alloca i32, align 4
  %6 = alloca i32, align 4
  %7 = alloca i32, align 4
  %8 = alloca i32, align 4
  store i32 %0, ptr %3, align 4
  store ptr %1, ptr %4, align 8
  %9 = load i32, ptr %3, align 4
  %10 = call { i32, i32, i32, i32 } asm "  xchgq  %rbx,${1:q}\0A  cpuid\0A  xchgq  %rbx,${1:q}", "={ax},=r,={cx},={dx},0,~{dirflag},~{fpsr},~{flags}"(i32 %9) #10, !srcloc !18
  %11 = extractvalue { i32, i32, i32, i32 } %10, 0
  %12 = extractvalue { i32, i32, i32, i32 } %10, 1
  %13 = extractvalue { i32, i32, i32, i32 } %10, 2
  %14 = extractvalue { i32, i32, i32, i32 } %10, 3
  store i32 %11, ptr %5, align 4
  store i32 %12, ptr %6, align 4
  store i32 %13, ptr %7, align 4
  store i32 %14, ptr %8, align 4
  %15 = load ptr, ptr %4, align 8
  %16 = icmp ne ptr %15, null
  br i1 %16, label %17, label %20

17:                                               ; preds = %2
  %18 = load i32, ptr %6, align 4
  %19 = load ptr, ptr %4, align 8
  store i32 %18, ptr %19, align 4
  br label %20

20:                                               ; preds = %17, %2
  %21 = load i32, ptr %5, align 4
  ret i32 %21
}

; Function Attrs: mustprogress nounwind uwtable
define internal noundef i32 @_ZL11__get_cpuidjPjS_S_S_(i32 noundef %0, ptr noundef %1, ptr noundef %2, ptr noundef %3, ptr noundef %4) #0 {
  %6 = alloca i32, align 4
  %7 = alloca i32, align 4
  %8 = alloca ptr, align 8
  %9 = alloca ptr, align 8
  %10 = alloca ptr, align 8
  %11 = alloca ptr, align 8
  %12 = alloca i32, align 4
  store i32 %0, ptr %7, align 4
  store ptr %1, ptr %8, align 8
  store ptr %2, ptr %9, align 8
  store ptr %3, ptr %10, align 8
  store ptr %4, ptr %11, align 8
  %13 = load i32, ptr %7, align 4
  %14 = and i32 %13, -2147483648
  %15 = call noundef i32 @_ZL15__get_cpuid_maxjPj(i32 noundef %14, ptr noundef null)
  store i32 %15, ptr %12, align 4
  %16 = load i32, ptr %12, align 4
  %17 = icmp eq i32 %16, 0
  br i1 %17, label %22, label %18

18:                                               ; preds = %5
  %19 = load i32, ptr %12, align 4
  %20 = load i32, ptr %7, align 4
  %21 = icmp ult i32 %19, %20
  br i1 %21, label %22, label %23

22:                                               ; preds = %18, %5
  store i32 0, ptr %6, align 4
  br label %34

23:                                               ; preds = %18
  %24 = load ptr, ptr %8, align 8
  %25 = load ptr, ptr %9, align 8
  %26 = load ptr, ptr %10, align 8
  %27 = load ptr, ptr %11, align 8
  %28 = load i32, ptr %7, align 4
  %29 = call { i32, i32, i32, i32 } asm "  xchgq  %rbx,${1:q}\0A  cpuid\0A  xchgq  %rbx,${1:q}", "={ax},=r,={cx},={dx},0,~{dirflag},~{fpsr},~{flags}"(i32 %28) #10, !srcloc !17
  %30 = extractvalue { i32, i32, i32, i32 } %29, 0
  %31 = extractvalue { i32, i32, i32, i32 } %29, 1
  %32 = extractvalue { i32, i32, i32, i32 } %29, 2
  %33 = extractvalue { i32, i32, i32, i32 } %29, 3
  store i32 %30, ptr %24, align 4
  store i32 %31, ptr %25, align 4
  store i32 %32, ptr %26, align 4
  store i32 %33, ptr %27, align 4
  store i32 1, ptr %6, align 4
  br label %34

34:                                               ; preds = %23, %22
  %35 = load i32, ptr %6, align 4
  ret i32 %35
}

; Function Attrs: mustprogress nounwind uwtable
define internal noundef zeroext i1 @_ZL18getX86CpuIDAndInfojPjS_S_S_(i32 noundef %0, ptr noundef %1, ptr noundef %2, ptr noundef %3, ptr noundef %4) #0 {
  %6 = alloca i32, align 4
  %7 = alloca ptr, align 8
  %8 = alloca ptr, align 8
  %9 = alloca ptr, align 8
  %10 = alloca ptr, align 8
  store i32 %0, ptr %6, align 4
  store ptr %1, ptr %7, align 8
  store ptr %2, ptr %8, align 8
  store ptr %3, ptr %9, align 8
  store ptr %4, ptr %10, align 8
  %11 = load i32, ptr %6, align 4
  %12 = load ptr, ptr %7, align 8
  %13 = load ptr, ptr %8, align 8
  %14 = load ptr, ptr %9, align 8
  %15 = load ptr, ptr %10, align 8
  %16 = call noundef i32 @_ZL11__get_cpuidjPjS_S_S_(i32 noundef %11, ptr noundef %12, ptr noundef %13, ptr noundef %14, ptr noundef %15)
  %17 = icmp ne i32 %16, 0
  %18 = xor i1 %17, true
  ret i1 %18
}

; Function Attrs: mustprogress nounwind uwtable
define dso_local noundef i32 @_ZN4llvm3sys6detail3x8618getVendorSignatureEPj(ptr noundef %0) #0 {
  %2 = alloca i32, align 4
  %3 = alloca ptr, align 8
  %4 = alloca i32, align 4
  %5 = alloca i32, align 4
  %6 = alloca i32, align 4
  %7 = alloca i32, align 4
  store ptr %0, ptr %3, align 8
  store i32 0, ptr %4, align 4
  store i32 0, ptr %5, align 4
  store i32 0, ptr %6, align 4
  store i32 0, ptr %7, align 4
  %8 = load ptr, ptr %3, align 8
  %9 = icmp eq ptr %8, null
  br i1 %9, label %10, label %11

10:                                               ; preds = %1
  store ptr %4, ptr %3, align 8
  br label %13

11:                                               ; preds = %1
  %12 = load ptr, ptr %3, align 8
  store i32 0, ptr %12, align 4
  br label %13

13:                                               ; preds = %11, %10
  %14 = load ptr, ptr %3, align 8
  %15 = call noundef zeroext i1 @_ZL18getX86CpuIDAndInfojPjS_S_S_(i32 noundef 0, ptr noundef %14, ptr noundef %5, ptr noundef %6, ptr noundef %7)
  br i1 %15, label %20, label %16

16:                                               ; preds = %13
  %17 = load ptr, ptr %3, align 8
  %18 = load i32, ptr %17, align 4
  %19 = icmp ult i32 %18, 1
  br i1 %19, label %20, label %21

20:                                               ; preds = %16, %13
  store i32 0, ptr %2, align 4
  br label %42

21:                                               ; preds = %16
  %22 = load i32, ptr %5, align 4
  %23 = icmp eq i32 %22, 1970169159
  br i1 %23, label %24, label %31

24:                                               ; preds = %21
  %25 = load i32, ptr %7, align 4
  %26 = icmp eq i32 %25, 1231384169
  br i1 %26, label %27, label %31

27:                                               ; preds = %24
  %28 = load i32, ptr %6, align 4
  %29 = icmp eq i32 %28, 1818588270
  br i1 %29, label %30, label %31

30:                                               ; preds = %27
  store i32 1, ptr %2, align 4
  br label %42

31:                                               ; preds = %27, %24, %21
  %32 = load i32, ptr %5, align 4
  %33 = icmp eq i32 %32, 1752462657
  br i1 %33, label %34, label %41

34:                                               ; preds = %31
  %35 = load i32, ptr %7, align 4
  %36 = icmp eq i32 %35, 1769238117
  br i1 %36, label %37, label %41

37:                                               ; preds = %34
  %38 = load i32, ptr %6, align 4
  %39 = icmp eq i32 %38, 1145913699
  br i1 %39, label %40, label %41

40:                                               ; preds = %37
  store i32 2, ptr %2, align 4
  br label %42

41:                                               ; preds = %37, %34, %31
  store i32 0, ptr %2, align 4
  br label %42

42:                                               ; preds = %41, %40, %30, %20
  %43 = load i32, ptr %2, align 4
  ret i32 %43
}