; Function Attrs: mustprogress nounwind memory(write, inaccessiblemem: none) uwtable
define dso_local noundef range(i32 0, 3) i32 @_ZN4llvm3sys6detail3x8618getVendorSignatureEPj(ptr noundef writeonly %0) local_unnamed_addr #6 {
  %2 = alloca i32, align 4
  %3 = icmp eq ptr %0, null
  br i1 %3, label %5, label %4

4:                                                ; preds = %1
  store i32 0, ptr %0, align 4
  br label %5

5:                                                ; preds = %1, %4
  %.0 = phi ptr [ %0, %4 ], [ %2, %1 ]
  %6 = tail call { i32, i32, i32, i32 } asm "  xchgq  %rbx,${1:q}\0A  cpuid\0A  xchgq  %rbx,${1:q}", "={ax},=r,={cx},={dx},0,~{dirflag},~{fpsr},~{flags}"(i32 0) #14, !srcloc !15
  %7 = extractvalue { i32, i32, i32, i32 } %6, 0
  %8 = icmp eq i32 %7, 0
  br i1 %8, label %_ZL18getX86CpuIDAndInfojPjS_S_S_.exit.thread, label %9

9:                                                ; preds = %5
  %10 = extractvalue { i32, i32, i32, i32 } %6, 1
  %11 = extractvalue { i32, i32, i32, i32 } %6, 2
  %12 = extractvalue { i32, i32, i32, i32 } %6, 3
  store i32 %7, ptr %.0, align 4
  %13 = icmp eq i32 %10, 1970169159
  %14 = icmp eq i32 %12, 1231384169
  %or.cond = select i1 %13, i1 %14, i1 false
  %15 = icmp eq i32 %11, 1818588270
  %or.cond3 = select i1 %or.cond, i1 %15, i1 false
  br i1 %or.cond3, label %_ZL18getX86CpuIDAndInfojPjS_S_S_.exit.thread, label %16

16:                                               ; preds = %9
  %17 = icmp eq i32 %10, 1752462657
  %18 = icmp eq i32 %12, 1769238117
  %or.cond5 = select i1 %17, i1 %18, i1 false
  %19 = icmp eq i32 %11, 1145913699
  %or.cond7 = select i1 %or.cond5, i1 %19, i1 false
  %. = select i1 %or.cond7, i32 2, i32 0
  br label %_ZL18getX86CpuIDAndInfojPjS_S_S_.exit.thread

_ZL18getX86CpuIDAndInfojPjS_S_S_.exit.thread:     ; preds = %5, %16, %9
  %.011 = phi i32 [ 1, %9 ], [ %., %16 ], [ 0, %5 ]
  ret i32 %.011
}